target datalayout = "e-m:e-p270:32:32-p271:32:32-p272:64:64-i64:64-i128:128-f80:128-n8:16:32:64-S128"
target triple = "x86_64-pc-linux-gnu"

%struct.DdManager = type { %struct.DdNode, ptr, ptr, ptr, ptr, ptr, ptr, ptr, i32, i32, double, double, double, i32, i32, i32, i32, i32, i32, ptr, ptr, %struct.DdSubtable, i32, i32, i32, i32, i32, i32, i32, double, i32, i32, i32, ptr, i64, double, i32, ptr, ptr, ptr, ptr, ptr, ptr, ptr, i32, ptr, ptr, ptr, ptr, ptr, ptr, i32, i32, i32, double, i32, i32, i32, i32, double, double, i32, i32, i32, i32, i32, i32, i32, i32, i32, ptr, ptr, i32, i32, i32, i32, i32, i32, ptr, ptr, ptr, ptr, ptr, ptr, ptr, ptr, i32, i64, i64, i64, i32, i64, i64, double, double, double, double, double, double, i32, ptr, ptr, i64 }
%struct.DdNode = type { i32, i32, ptr, %union.anon, i64 }
%union.anon = type { %struct.DdChildren }
%struct.DdChildren = type { ptr, ptr }
%struct.DdSubtable = type { ptr, i32, i32, i32, i32, i32, i32, i32, i32, i32, i32, i32 }
%struct.Aig_Obj_t_ = type { %union.anon.0, ptr, ptr, i64, i32, i32, %union.anon.1 }
%union.anon.0 = type { ptr }
%union.anon.1 = type { ptr }
%struct.Aig_Man_t_ = type { ptr, ptr, ptr, ptr, ptr, ptr, ptr, %struct.Aig_Obj_t_, i32, i32, i32, i32, i32, i32, [7 x i32], i32, ptr, i32, ptr, i32, ptr, i32, i32, i32, ptr, i32, i32, i32, i32, i32, ptr, ptr, i32, ptr, ptr, i32, ptr, ptr, i32, i32, i32, ptr, ptr, ptr, ptr, ptr, ptr, ptr, ptr, ptr, ptr, ptr, ptr, ptr, ptr, i32, ptr, ptr, ptr, ptr, i32, i64, i64, i64, ptr, ptr }
%struct.Vec_Ptr_t_ = type { i32, i32, ptr }
%struct.Llb_Man_t_ = type { ptr, ptr, ptr, ptr, ptr, ptr, ptr, ptr, ptr, ptr, ptr, ptr, ptr, ptr, ptr, ptr, ptr }
%struct.Llb_Grp_t_ = type { i32, ptr, ptr, ptr, ptr, ptr, ptr }
%struct.Vec_Int_t_ = type { i32, i32, ptr }

; Function Attrs: nounwind uwtable
define internal i32 @Saig_ManPiNum(ptr noundef %0) #0 {
  %2 = alloca ptr, align 8
  store ptr %0, ptr %2, align 8
  %3 = load ptr, ptr %2, align 8
  %4 = getelementptr inbounds %struct.Aig_Man_t_, ptr %3, i32 0, i32 9
  %5 = load i32, ptr %4, align 4
  ret i32 %5
}

; Function Attrs: nounwind uwtable
define internal i32 @Aig_ObjCioId(ptr noundef %0) #0 {
  %2 = alloca ptr, align 8
  store ptr %0, ptr %2, align 8
  %3 = load ptr, ptr %2, align 8
  %4 = getelementptr inbounds %struct.Aig_Obj_t_, ptr %3, i32 0, i32 0
  %5 = load i32, ptr %4, align 8
  ret i32 %5
}

; Function Attrs: nounwind uwtable
define internal i32 @Aig_ObjIsCi(ptr noundef %0) #0 {
  %2 = alloca ptr, align 8
  store ptr %0, ptr %2, align 8
  %3 = load ptr, ptr %2, align 8
  %4 = getelementptr inbounds %struct.Aig_Obj_t_, ptr %3, i32 0, i32 3
  %5 = load i64, ptr %4, align 8
  %6 = and i64 %5, 7
  %7 = trunc i64 %6 to i32
  %8 = icmp eq i32 %7, 2
  %9 = zext i1 %8 to i32
  ret i32 %9
}

; Function Attrs: nounwind uwtable
define internal i32 @Vec_IntEntry(ptr noundef %0, i32 noundef %1) #0 {
  %3 = alloca ptr, align 8
  %4 = alloca i32, align 4
  store ptr %0, ptr %3, align 8
  store i32 %1, ptr %4, align 4
  %5 = load ptr, ptr %3, align 8
  %6 = getelementptr inbounds %struct.Vec_Int_t_, ptr %5, i32 0, i32 2
  %7 = load ptr, ptr %6, align 8
  %8 = load i32, ptr %4, align 4
  %9 = sext i32 %8 to i64
  %10 = getelementptr inbounds i32, ptr %7, i64 %9
  %11 = load i32, ptr %10, align 4
  ret i32 %11
}

; Function Attrs: nounwind uwtable
define internal i32 @Aig_ObjId(ptr noundef %0) #0 {
  %2 = alloca ptr, align 8
  store ptr %0, ptr %2, align 8
  %3 = load ptr, ptr %2, align 8
  %4 = getelementptr inbounds %struct.Aig_Obj_t_, ptr %3, i32 0, i32 5
  %5 = load i32, ptr %4, align 4
  ret i32 %5
}

; Function Attrs: nounwind uwtable
define internal i32 @Saig_ObjIsPi(ptr noundef %0, ptr noundef %1) #0 {
  %3 = alloca ptr, align 8
  %4 = alloca ptr, align 8
  store ptr %0, ptr %3, align 8
  store ptr %1, ptr %4, align 8
  %5 = load ptr, ptr %4, align 8
  %6 = call i32 @Aig_ObjIsCi(ptr noundef %5)
  %7 = icmp ne i32 %6, 0
  br i1 %7, label %8, label %14

8:                                                ; preds = %2
  %9 = load ptr, ptr %4, align 8
  %10 = call i32 @Aig_ObjCioId(ptr noundef %9)
  %11 = load ptr, ptr %3, align 8
  %12 = call i32 @Saig_ManPiNum(ptr noundef %11)
  %13 = icmp slt i32 %10, %12
  br label %14

14:                                               ; preds = %8, %2
  %15 = phi i1 [ false, %2 ], [ %13, %8 ]
  %16 = zext i1 %15 to i32
  ret i32 %16
}

; Function Attrs: nounwind uwtable
define internal ptr @Vec_PtrEntry(ptr noundef %0, i32 noundef %1) #0 {
  %3 = alloca ptr, align 8
  %4 = alloca i32, align 4
  store ptr %0, ptr %3, align 8
  store i32 %1, ptr %4, align 4
  %5 = load ptr, ptr %3, align 8
  %6 = getelementptr inbounds %struct.Vec_Ptr_t_, ptr %5, i32 0, i32 2
  %7 = load ptr, ptr %6, align 8
  %8 = load i32, ptr %4, align 4
  %9 = sext i32 %8 to i64
  %10 = getelementptr inbounds ptr, ptr %7, i64 %9
  %11 = load ptr, ptr %10, align 8
  ret ptr %11
}

; Function Attrs: nounwind uwtable
define internal i32 @Vec_PtrSize(ptr noundef %0) #0 {
  %2 = alloca ptr, align 8
  store ptr %0, ptr %2, align 8
  %3 = load ptr, ptr %2, align 8
  %4 = getelementptr inbounds %struct.Vec_Ptr_t_, ptr %3, i32 0, i32 1
  %5 = load i32, ptr %4, align 4
  ret i32 %5
}

; Function Attrs: nounwind uwtable
define ptr @Llb_ManConstructQuantCubeBwd(ptr noundef %0, ptr noundef %1, i32 noundef %2) #0 {
  %4 = alloca ptr, align 8
  %5 = alloca ptr, align 8
  %6 = alloca i32, align 4
  %7 = alloca ptr, align 8
  %8 = alloca ptr, align 8
  %9 = alloca ptr, align 8
  %10 = alloca ptr, align 8
  %11 = alloca i32, align 4
  %12 = alloca i32, align 4
  %13 = alloca i64, align 8
  store ptr %0, ptr %4, align 8
  store ptr %1, ptr %5, align 8
  store i32 %2, ptr %6, align 4
  %14 = load ptr, ptr %4, align 8
  %15 = getelementptr inbounds %struct.Llb_Man_t_, ptr %14, i32 0, i32 3
  %16 = load ptr, ptr %15, align 8
  %17 = getelementptr inbounds %struct.DdManager, ptr %16, i32 0, i32 102
  %18 = load i64, ptr %17, align 8
  store i64 %18, ptr %13, align 8
  %19 = load ptr, ptr %4, align 8
  %20 = getelementptr inbounds %struct.Llb_Man_t_, ptr %19, i32 0, i32 3
  %21 = load ptr, ptr %20, align 8
  %22 = getelementptr inbounds %struct.DdManager, ptr %21, i32 0, i32 102
  store i64 0, ptr %22, align 8
  %23 = load ptr, ptr %4, align 8
  %24 = getelementptr inbounds %struct.Llb_Man_t_, ptr %23, i32 0, i32 3
  %25 = load ptr, ptr %24, align 8
  %26 = call ptr @Cudd_ReadOne(ptr noundef %25)
  store ptr %26, ptr %8, align 8
  %27 = load ptr, ptr %8, align 8
  call void @Cudd_Ref(ptr noundef %27)
  store i32 0, ptr %11, align 4
  br label %28

28:                                               ; preds = %84, %3
  %29 = load i32, ptr %11, align 4
  %30 = load ptr, ptr %5, align 8
  %31 = getelementptr inbounds %struct.Llb_Grp_t_, ptr %30, i32 0, i32 1
  %32 = load ptr, ptr %31, align 8
  %33 = call i32 @Vec_PtrSize(ptr noundef %32)
  %34 = icmp slt i32 %29, %33
  br i1 %34, label %35, label %41

35:                                               ; preds = %28
  %36 = load ptr, ptr %5, align 8
  %37 = getelementptr inbounds %struct.Llb_Grp_t_, ptr %36, i32 0, i32 1
  %38 = load ptr, ptr %37, align 8
  %39 = load i32, ptr %11, align 4
  %40 = call ptr @Vec_PtrEntry(ptr noundef %38, i32 noundef %39)
  store ptr %40, ptr %7, align 8
  br label %41

41:                                               ; preds = %35, %28
  %42 = phi i1 [ false, %28 ], [ true, %35 ]
  br i1 %42, label %43, label %87

43:                                               ; preds = %41
  %44 = load ptr, ptr %4, align 8
  %45 = getelementptr inbounds %struct.Llb_Man_t_, ptr %44, i32 0, i32 2
  %46 = load ptr, ptr %45, align 8
  %47 = load ptr, ptr %7, align 8
  %48 = call i32 @Saig_ObjIsPi(ptr noundef %46, ptr noundef %47)
  %49 = icmp ne i32 %48, 0
  br i1 %49, label %50, label %51

50:                                               ; preds = %43
  br label %84

51:                                               ; preds = %43
  %52 = load ptr, ptr %4, align 8
  %53 = getelementptr inbounds %struct.Llb_Man_t_, ptr %52, i32 0, i32 11
  %54 = load ptr, ptr %53, align 8
  %55 = load ptr, ptr %7, align 8
  %56 = call i32 @Aig_ObjId(ptr noundef %55)
  %57 = call i32 @Vec_IntEntry(ptr noundef %54, i32 noundef %56)
  store i32 %57, ptr %12, align 4
  %58 = load i32, ptr %12, align 4
  %59 = load i32, ptr %6, align 4
  %60 = icmp slt i32 %58, %59
  br i1 %60, label %61, label %62

61:                                               ; preds = %51
  br label %84

62:                                               ; preds = %51
  %63 = load ptr, ptr %4, align 8
  %64 = getelementptr inbounds %struct.Llb_Man_t_, ptr %63, i32 0, i32 3
  %65 = load ptr, ptr %64, align 8
  %66 = load ptr, ptr %4, align 8
  %67 = getelementptr inbounds %struct.Llb_Man_t_, ptr %66, i32 0, i32 6
  %68 = load ptr, ptr %67, align 8
  %69 = load ptr, ptr %7, align 8
  %70 = call i32 @Aig_ObjId(ptr noundef %69)
  %71 = call i32 @Vec_IntEntry(ptr noundef %68, i32 noundef %70)
  %72 = call ptr @Cudd_bddIthVar(ptr noundef %65, i32 noundef %71)
  store ptr %72, ptr %10, align 8
  %73 = load ptr, ptr %4, align 8
  %74 = getelementptr inbounds %struct.Llb_Man_t_, ptr %73, i32 0, i32 3
  %75 = load ptr, ptr %74, align 8
  %76 = load ptr, ptr %8, align 8
  store ptr %76, ptr %9, align 8
  %77 = load ptr, ptr %10, align 8
  %78 = call ptr @Cudd_bddAnd(ptr noundef %75, ptr noundef %76, ptr noundef %77)
  store ptr %78, ptr %8, align 8
  %79 = load ptr, ptr %8, align 8
  call void @Cudd_Ref(ptr noundef %79)
  %80 = load ptr, ptr %4, align 8
  %81 = getelementptr inbounds %struct.Llb_Man_t_, ptr %80, i32 0, i32 3
  %82 = load ptr, ptr %81, align 8
  %83 = load ptr, ptr %9, align 8
  call void @Cudd_RecursiveDeref(ptr noundef %82, ptr noundef %83)
  br label %84

84:                                               ; preds = %62, %61, %50
  %85 = load i32, ptr %11, align 4
  %86 = add nsw i32 %85, 1
  store i32 %86, ptr %11, align 4
  br label %28, !llvm.loop !17

87:                                               ; preds = %41
  store i32 0, ptr %11, align 4
  br label %88

88:                                               ; preds = %144, %87
  %89 = load i32, ptr %11, align 4
  %90 = load ptr, ptr %5, align 8
  %91 = getelementptr inbounds %struct.Llb_Grp_t_, ptr %90, i32 0, i32 2
  %92 = load ptr, ptr %91, align 8
  %93 = call i32 @Vec_PtrSize(ptr noundef %92)
  %94 = icmp slt i32 %89, %93
  br i1 %94, label %95, label %101

95:                                               ; preds = %88
  %96 = load ptr, ptr %5, align 8
  %97 = getelementptr inbounds %struct.Llb_Grp_t_, ptr %96, i32 0, i32 2
  %98 = load ptr, ptr %97, align 8
  %99 = load i32, ptr %11, align 4
  %100 = call ptr @Vec_PtrEntry(ptr noundef %98, i32 noundef %99)
  store ptr %100, ptr %7, align 8
  br label %101

101:                                              ; preds = %95, %88
  %102 = phi i1 [ false, %88 ], [ true, %95 ]
  br i1 %102, label %103, label %147

103:                                              ; preds = %101
  %104 = load ptr, ptr %4, align 8
  %105 = getelementptr inbounds %struct.Llb_Man_t_, ptr %104, i32 0, i32 2
  %106 = load ptr, ptr %105, align 8
  %107 = load ptr, ptr %7, align 8
  %108 = call i32 @Saig_ObjIsPi(ptr noundef %106, ptr noundef %107)
  %109 = icmp ne i32 %108, 0
  br i1 %109, label %110, label %111

110:                                              ; preds = %103
  br label %144

111:                                              ; preds = %103
  %112 = load ptr, ptr %4, align 8
  %113 = getelementptr inbounds %struct.Llb_Man_t_, ptr %112, i32 0, i32 11
  %114 = load ptr, ptr %113, align 8
  %115 = load ptr, ptr %7, align 8
  %116 = call i32 @Aig_ObjId(ptr noundef %115)
  %117 = call i32 @Vec_IntEntry(ptr noundef %114, i32 noundef %116)
  store i32 %117, ptr %12, align 4
  %118 = load i32, ptr %12, align 4
  %119 = load i32, ptr %6, align 4
  %120 = icmp slt i32 %118, %119
  br i1 %120, label %121, label %122

121:                                              ; preds = %111
  br label %144

122:                                              ; preds = %111
  %123 = load ptr, ptr %4, align 8
  %124 = getelementptr inbounds %struct.Llb_Man_t_, ptr %123, i32 0, i32 3
  %125 = load ptr, ptr %124, align 8
  %126 = load ptr, ptr %4, align 8
  %127 = getelementptr inbounds %struct.Llb_Man_t_, ptr %126, i32 0, i32 6
  %128 = load ptr, ptr %127, align 8
  %129 = load ptr, ptr %7, align 8
  %130 = call i32 @Aig_ObjId(ptr noundef %129)
  %131 = call i32 @Vec_IntEntry(ptr noundef %128, i32 noundef %130)
  %132 = call ptr @Cudd_bddIthVar(ptr noundef %125, i32 noundef %131)
  store ptr %132, ptr %10, align 8
  %133 = load ptr, ptr %4, align 8
  %134 = getelementptr inbounds %struct.Llb_Man_t_, ptr %133, i32 0, i32 3
  %135 = load ptr, ptr %134, align 8
  %136 = load ptr, ptr %8, align 8
  store ptr %136, ptr %9, align 8
  %137 = load ptr, ptr %10, align 8
  %138 = call ptr @Cudd_bddAnd(ptr noundef %135, ptr noundef %136, ptr noundef %137)
  store ptr %138, ptr %8, align 8
  %139 = load ptr, ptr %8, align 8
  call void @Cudd_Ref(ptr noundef %139)
  %140 = load ptr, ptr %4, align 8
  %141 = getelementptr inbounds %struct.Llb_Man_t_, ptr %140, i32 0, i32 3
  %142 = load ptr, ptr %141, align 8
  %143 = load ptr, ptr %9, align 8
  call void @Cudd_RecursiveDeref(ptr noundef %142, ptr noundef %143)
  br label %144

144:                                              ; preds = %122, %121, %110
  %145 = load i32, ptr %11, align 4
  %146 = add nsw i32 %145, 1
  store i32 %146, ptr %11, align 4
  br label %88, !llvm.loop !18

147:                                              ; preds = %101
  %148 = load ptr, ptr %8, align 8
  call void @Cudd_Deref(ptr noundef %148)
  %149 = load i64, ptr %13, align 8
  %150 = load ptr, ptr %4, align 8
  %151 = getelementptr inbounds %struct.Llb_Man_t_, ptr %150, i32 0, i32 3
  %152 = load ptr, ptr %151, align 8
  %153 = getelementptr inbounds %struct.DdManager, ptr %152, i32 0, i32 102
  store i64 %149, ptr %153, align 8
  %154 = load ptr, ptr %8, align 8
  ret ptr %154
}