; Function Attrs: nounwind uwtable
define noundef ptr @Llb_ManConstructQuantCubeBwd(ptr noundef readonly captures(none) %0, ptr noundef readonly captures(none) %1, i32 noundef %2) local_unnamed_addr #0 {
  %4 = getelementptr inbounds nuw i8, ptr %0, i64 24
  %5 = load ptr, ptr %4, align 8
  %6 = getelementptr inbounds nuw i8, ptr %5, i64 752
  %7 = load i64, ptr %6, align 8
  store i64 0, ptr %6, align 8
  %8 = load ptr, ptr %4, align 8
  %9 = tail call ptr @Cudd_ReadOne(ptr noundef %8) #12
  tail call void @Cudd_Ref(ptr noundef %9) #12
  %10 = getelementptr inbounds nuw i8, ptr %1, i64 8
  %11 = load ptr, ptr %10, align 8
  %12 = getelementptr i8, ptr %11, i64 4
  %.val5271 = load i32, ptr %12, align 4
  %13 = icmp sgt i32 %.val5271, 0
  br i1 %13, label %.lr.ph, label %.critedge.preheader

.lr.ph:                                           ; preds = %3
  %14 = getelementptr inbounds nuw i8, ptr %0, i64 16
  %15 = getelementptr inbounds nuw i8, ptr %0, i64 88
  %16 = getelementptr inbounds nuw i8, ptr %0, i64 48
  br label %24

.critedge.preheader:                              ; preds = %50, %3
  %.049.lcssa = phi ptr [ %9, %3 ], [ %.150, %50 ]
  %17 = getelementptr inbounds nuw i8, ptr %1, i64 16
  %18 = load ptr, ptr %17, align 8
  %19 = getelementptr i8, ptr %18, i64 4
  %.val74 = load i32, ptr %19, align 4
  %20 = icmp sgt i32 %.val74, 0
  br i1 %20, label %.lr.ph77, label %.critedge2

.lr.ph77:                                         ; preds = %.critedge.preheader
  %21 = getelementptr inbounds nuw i8, ptr %0, i64 16
  %22 = getelementptr inbounds nuw i8, ptr %0, i64 88
  %23 = getelementptr inbounds nuw i8, ptr %0, i64 48
  br label %55

24:                                               ; preds = %.lr.ph, %50
  %25 = phi ptr [ %11, %.lr.ph ], [ %51, %50 ]
  %indvars.iv = phi i64 [ 0, %.lr.ph ], [ %indvars.iv.next, %50 ]
  %.04972 = phi ptr [ %9, %.lr.ph ], [ %.150, %50 ]
  %26 = getelementptr i8, ptr %25, i64 8
  %.val54 = load ptr, ptr %26, align 8
  %27 = getelementptr inbounds nuw ptr, ptr %.val54, i64 %indvars.iv
  %28 = load ptr, ptr %27, align 8
  %29 = getelementptr i8, ptr %28, i64 24
  %.val.i = load i64, ptr %29, align 8
  %30 = and i64 %.val.i, 7
  %.not.i = icmp eq i64 %30, 2
  br i1 %.not.i, label %Saig_ObjIsPi.exit, label %Saig_ObjIsPi.exit.thread

Saig_ObjIsPi.exit:                                ; preds = %24
  %31 = load ptr, ptr %14, align 8
  %.val3.i = load i32, ptr %28, align 8
  %32 = getelementptr i8, ptr %31, i64 108
  %.val4.i = load i32, ptr %32, align 4
  %.not70 = icmp slt i32 %.val3.i, %.val4.i
  br i1 %.not70, label %50, label %Saig_ObjIsPi.exit.thread

Saig_ObjIsPi.exit.thread:                         ; preds = %24, %Saig_ObjIsPi.exit
  %33 = load ptr, ptr %15, align 8
  %34 = getelementptr i8, ptr %28, i64 36
  %.val58 = load i32, ptr %34, align 4
  %35 = getelementptr i8, ptr %33, i64 8
  %.val62 = load ptr, ptr %35, align 8
  %36 = sext i32 %.val58 to i64
  %37 = getelementptr inbounds i32, ptr %.val62, i64 %36
  %38 = load i32, ptr %37, align 4
  %39 = icmp slt i32 %38, %2
  br i1 %39, label %50, label %40

40:                                               ; preds = %Saig_ObjIsPi.exit.thread
  %41 = load ptr, ptr %4, align 8
  %42 = load ptr, ptr %16, align 8
  %43 = getelementptr i8, ptr %42, i64 8
  %.val61 = load ptr, ptr %43, align 8
  %44 = getelementptr inbounds i32, ptr %.val61, i64 %36
  %45 = load i32, ptr %44, align 4
  %46 = tail call ptr @Cudd_bddIthVar(ptr noundef %41, i32 noundef %45) #12
  %47 = load ptr, ptr %4, align 8
  %48 = tail call ptr @Cudd_bddAnd(ptr noundef %47, ptr noundef %.04972, ptr noundef %46) #12
  tail call void @Cudd_Ref(ptr noundef %48) #12
  %49 = load ptr, ptr %4, align 8
  tail call void @Cudd_RecursiveDeref(ptr noundef %49, ptr noundef %.04972) #12
  %.pre = load ptr, ptr %10, align 8
  br label %50

50:                                               ; preds = %Saig_ObjIsPi.exit.thread, %Saig_ObjIsPi.exit, %40
  %51 = phi ptr [ %25, %Saig_ObjIsPi.exit ], [ %25, %Saig_ObjIsPi.exit.thread ], [ %.pre, %40 ]
  %.150 = phi ptr [ %.04972, %Saig_ObjIsPi.exit ], [ %.04972, %Saig_ObjIsPi.exit.thread ], [ %48, %40 ]
  %indvars.iv.next = add nuw nsw i64 %indvars.iv, 1
  %52 = getelementptr i8, ptr %51, i64 4
  %.val52 = load i32, ptr %52, align 4
  %53 = sext i32 %.val52 to i64
  %54 = icmp slt i64 %indvars.iv.next, %53
  br i1 %54, label %24, label %.critedge.preheader, !llvm.loop !17

55:                                               ; preds = %.lr.ph77, %.critedge
  %56 = phi ptr [ %18, %.lr.ph77 ], [ %81, %.critedge ]
  %indvars.iv80 = phi i64 [ 0, %.lr.ph77 ], [ %indvars.iv.next81, %.critedge ]
  %.275 = phi ptr [ %.049.lcssa, %.lr.ph77 ], [ %.3, %.critedge ]
  %57 = getelementptr i8, ptr %56, i64 8
  %.val53 = load ptr, ptr %57, align 8
  %58 = getelementptr inbounds nuw ptr, ptr %.val53, i64 %indvars.iv80
  %59 = load ptr, ptr %58, align 8
  %60 = getelementptr i8, ptr %59, i64 24
  %.val.i63 = load i64, ptr %60, align 8
  %61 = and i64 %.val.i63, 7
  %.not.i64 = icmp eq i64 %61, 2
  br i1 %.not.i64, label %Saig_ObjIsPi.exit67, label %Saig_ObjIsPi.exit67.thread

Saig_ObjIsPi.exit67:                              ; preds = %55
  %62 = load ptr, ptr %21, align 8
  %.val3.i65 = load i32, ptr %59, align 8
  %63 = getelementptr i8, ptr %62, i64 108
  %.val4.i66 = load i32, ptr %63, align 4
  %.not = icmp slt i32 %.val3.i65, %.val4.i66
  br i1 %.not, label %.critedge, label %Saig_ObjIsPi.exit67.thread

Saig_ObjIsPi.exit67.thread:                       ; preds = %55, %Saig_ObjIsPi.exit67
  %64 = load ptr, ptr %22, align 8
  %65 = getelementptr i8, ptr %59, i64 36
  %.val56 = load i32, ptr %65, align 4
  %66 = getelementptr i8, ptr %64, i64 8
  %.val60 = load ptr, ptr %66, align 8
  %67 = sext i32 %.val56 to i64
  %68 = getelementptr inbounds i32, ptr %.val60, i64 %67
  %69 = load i32, ptr %68, align 4
  %70 = icmp slt i32 %69, %2
  br i1 %70, label %.critedge, label %71

71:                                               ; preds = %Saig_ObjIsPi.exit67.thread
  %72 = load ptr, ptr %4, align 8
  %73 = load ptr, ptr %23, align 8
  %74 = getelementptr i8, ptr %73, i64 8
  %.val59 = load ptr, ptr %74, align 8
  %75 = getelementptr inbounds i32, ptr %.val59, i64 %67
  %76 = load i32, ptr %75, align 4
  %77 = tail call ptr @Cudd_bddIthVar(ptr noundef %72, i32 noundef %76) #12
  %78 = load ptr, ptr %4, align 8
  %79 = tail call ptr @Cudd_bddAnd(ptr noundef %78, ptr noundef %.275, ptr noundef %77) #12
  tail call void @Cudd_Ref(ptr noundef %79) #12
  %80 = load ptr, ptr %4, align 8
  tail call void @Cudd_RecursiveDeref(ptr noundef %80, ptr noundef %.275) #12
  %.pre83 = load ptr, ptr %17, align 8
  br label %.critedge

.critedge:                                        ; preds = %Saig_ObjIsPi.exit67.thread, %Saig_ObjIsPi.exit67, %71
  %81 = phi ptr [ %56, %Saig_ObjIsPi.exit67 ], [ %56, %Saig_ObjIsPi.exit67.thread ], [ %.pre83, %71 ]
  %.3 = phi ptr [ %.275, %Saig_ObjIsPi.exit67 ], [ %.275, %Saig_ObjIsPi.exit67.thread ], [ %79, %71 ]
  %indvars.iv.next81 = add nuw nsw i64 %indvars.iv80, 1
  %82 = getelementptr i8, ptr %81, i64 4
  %.val = load i32, ptr %82, align 4
  %83 = sext i32 %.val to i64
  %84 = icmp slt i64 %indvars.iv.next81, %83
  br i1 %84, label %55, label %.critedge2, !llvm.loop !18

.critedge2:                                       ; preds = %.critedge, %.critedge.preheader
  %.2.lcssa = phi ptr [ %.049.lcssa, %.critedge.preheader ], [ %.3, %.critedge ]
  tail call void @Cudd_Deref(ptr noundef %.2.lcssa) #12
  %85 = load ptr, ptr %4, align 8
  %86 = getelementptr inbounds nuw i8, ptr %85, i64 752
  store i64 %7, ptr %86, align 8
  ret ptr %.2.lcssa
}